; ModuleID = 'source-C-CXX/34/2178.c'
source_filename = "source-C-CXX/34/2178.c"
target datalayout = "e-m:e-p270:32:32-p271:32:32-p272:64:64-i64:64-f80:128-n8:16:32:64-S128"
target triple = "x86_64-pc-linux-gnu"

@.str = private unnamed_addr constant [6 x i8] c"%d,%d\00", align 1
@.str.1 = private unnamed_addr constant [3 x i8] c"%d\00", align 1
@.str.2 = private unnamed_addr constant [7 x i8] c"%d+%d\0A\00", align 1
@str = private unnamed_addr constant [3 x i8] c"No\00", align 1

; Function Attrs: nofree nounwind sspstrong uwtable
define dso_local void @main() local_unnamed_addr #0 {
  %1 = alloca i32, align 4
  %2 = alloca i32, align 4
  %3 = alloca [9 x [9 x i32]], align 16
  %4 = bitcast i32* %1 to i8*
  call void @llvm.lifetime.start.p0i8(i64 4, i8* nonnull %4) #4
  %5 = bitcast i32* %2 to i8*
  call void @llvm.lifetime.start.p0i8(i64 4, i8* nonnull %5) #4
  %6 = bitcast [9 x [9 x i32]]* %3 to i8*
  call void @llvm.lifetime.start.p0i8(i64 324, i8* nonnull %6) #4
  %7 = call i32 (i8*, ...) @__isoc99_scanf(i8* getelementptr inbounds ([6 x i8], [6 x i8]* @.str, i64 0, i64 0), i32* nonnull %1, i32* nonnull %2)
  %8 = load i32, i32* %1, align 4, !tbaa !5
  %9 = icmp sgt i32 %8, 0
  br i1 %9, label %10, label %131

10:                                               ; preds = %0
  %11 = load i32, i32* %2, align 4, !tbaa !5
  %12 = icmp sgt i32 %11, 0
  br i1 %12, label %13, label %87

13:                                               ; preds = %10, %118
  %14 = phi i32 [ %119, %118 ], [ %8, %10 ]
  %15 = phi i32 [ %120, %118 ], [ %11, %10 ]
  %16 = phi i64 [ %121, %118 ], [ 0, %10 ]
  %17 = icmp sgt i32 %15, 0
  br i1 %17, label %108, label %118

18:                                               ; preds = %118
  %19 = icmp sgt i32 %119, 0
  br i1 %19, label %20, label %131

20:                                               ; preds = %18
  %21 = icmp sgt i32 %120, 0
  br i1 %21, label %22, label %87

22:                                               ; preds = %20
  %23 = zext i32 %119 to i64
  %24 = zext i32 %119 to i64
  %25 = zext i32 %120 to i64
  %26 = and i64 %25, 1
  %27 = icmp eq i32 %120, 1
  %28 = and i64 %25, 4294967294
  %29 = icmp eq i64 %26, 0
  br label %30

30:                                               ; preds = %22, %41
  %31 = phi i64 [ 0, %22 ], [ %42, %41 ]
  %32 = phi i1 [ true, %22 ], [ %43, %41 ]
  br i1 %27, label %69, label %45

33:                                               ; preds = %35
  %34 = icmp eq i64 %40, %24
  br i1 %34, label %124, label %35, !llvm.loop !9

35:                                               ; preds = %82, %33
  %36 = phi i64 [ 0, %82 ], [ %40, %33 ]
  %37 = getelementptr inbounds [9 x [9 x i32]], [9 x [9 x i32]]* %3, i64 0, i64 %36, i64 %84
  %38 = load i32, i32* %37, align 4, !tbaa !5
  %39 = icmp slt i32 %38, %86
  %40 = add nuw nsw i64 %36, 1
  br i1 %39, label %41, label %33

41:                                               ; preds = %35
  %42 = add nuw nsw i64 %31, 1
  %43 = icmp ult i64 %42, %23
  %44 = icmp eq i64 %42, %24
  br i1 %44, label %131, label %30, !llvm.loop !11

45:                                               ; preds = %30, %45
  %46 = phi i64 [ %66, %45 ], [ 0, %30 ]
  %47 = phi i32 [ %65, %45 ], [ 0, %30 ]
  %48 = phi i64 [ %67, %45 ], [ %28, %30 ]
  %49 = getelementptr inbounds [9 x [9 x i32]], [9 x [9 x i32]]* %3, i64 0, i64 %31, i64 %46
  %50 = load i32, i32* %49, align 4, !tbaa !5
  %51 = sext i32 %47 to i64
  %52 = getelementptr inbounds [9 x [9 x i32]], [9 x [9 x i32]]* %3, i64 0, i64 %31, i64 %51
  %53 = load i32, i32* %52, align 4, !tbaa !5
  %54 = icmp sgt i32 %50, %53
  %55 = trunc i64 %46 to i32
  %56 = select i1 %54, i32 %55, i32 %47
  %57 = or i64 %46, 1
  %58 = getelementptr inbounds [9 x [9 x i32]], [9 x [9 x i32]]* %3, i64 0, i64 %31, i64 %57
  %59 = load i32, i32* %58, align 4, !tbaa !5
  %60 = sext i32 %56 to i64
  %61 = getelementptr inbounds [9 x [9 x i32]], [9 x [9 x i32]]* %3, i64 0, i64 %31, i64 %60
  %62 = load i32, i32* %61, align 4, !tbaa !5
  %63 = icmp sgt i32 %59, %62
  %64 = trunc i64 %57 to i32
  %65 = select i1 %63, i32 %64, i32 %56
  %66 = add nuw nsw i64 %46, 2
  %67 = add i64 %48, -2
  %68 = icmp eq i64 %67, 0
  br i1 %68, label %69, label %45, !llvm.loop !12

69:                                               ; preds = %45, %30
  %70 = phi i32 [ undef, %30 ], [ %65, %45 ]
  %71 = phi i64 [ 0, %30 ], [ %66, %45 ]
  %72 = phi i32 [ 0, %30 ], [ %65, %45 ]
  br i1 %29, label %82, label %73

73:                                               ; preds = %69
  %74 = getelementptr inbounds [9 x [9 x i32]], [9 x [9 x i32]]* %3, i64 0, i64 %31, i64 %71
  %75 = load i32, i32* %74, align 4, !tbaa !5
  %76 = sext i32 %72 to i64
  %77 = getelementptr inbounds [9 x [9 x i32]], [9 x [9 x i32]]* %3, i64 0, i64 %31, i64 %76
  %78 = load i32, i32* %77, align 4, !tbaa !5
  %79 = icmp sgt i32 %75, %78
  %80 = trunc i64 %71 to i32
  %81 = select i1 %79, i32 %80, i32 %72
  br label %82

82:                                               ; preds = %69, %73
  %83 = phi i32 [ %70, %69 ], [ %81, %73 ]
  %84 = sext i32 %83 to i64
  %85 = getelementptr inbounds [9 x [9 x i32]], [9 x [9 x i32]]* %3, i64 0, i64 %31, i64 %84
  %86 = load i32, i32* %85, align 4, !tbaa !5
  br label %35

87:                                               ; preds = %10, %20
  %88 = phi i32 [ %119, %20 ], [ %8, %10 ]
  %89 = zext i32 %88 to i64
  %90 = zext i32 %88 to i64
  br label %91

91:                                               ; preds = %87, %104
  %92 = phi i64 [ 0, %87 ], [ %105, %104 ]
  %93 = phi i1 [ true, %87 ], [ %106, %104 ]
  %94 = getelementptr inbounds [9 x [9 x i32]], [9 x [9 x i32]]* %3, i64 0, i64 %92, i64 0
  %95 = load i32, i32* %94, align 4, !tbaa !5
  br label %98

96:                                               ; preds = %98
  %97 = icmp eq i64 %103, %90
  br i1 %97, label %125, label %98, !llvm.loop !9

98:                                               ; preds = %91, %96
  %99 = phi i64 [ 0, %91 ], [ %103, %96 ]
  %100 = getelementptr inbounds [9 x [9 x i32]], [9 x [9 x i32]]* %3, i64 0, i64 %99, i64 0
  %101 = load i32, i32* %100, align 4, !tbaa !5
  %102 = icmp slt i32 %101, %95
  %103 = add nuw nsw i64 %99, 1
  br i1 %102, label %104, label %96

104:                                              ; preds = %98
  %105 = add nuw nsw i64 %92, 1
  %106 = icmp ult i64 %105, %89
  %107 = icmp eq i64 %105, %90
  br i1 %107, label %131, label %91, !llvm.loop !11

108:                                              ; preds = %13, %108
  %109 = phi i64 [ %112, %108 ], [ 0, %13 ]
  %110 = getelementptr inbounds [9 x [9 x i32]], [9 x [9 x i32]]* %3, i64 0, i64 %16, i64 %109
  %111 = call i32 (i8*, ...) @__isoc99_scanf(i8* getelementptr inbounds ([3 x i8], [3 x i8]* @.str.1, i64 0, i64 0), i32* nonnull %110)
  %112 = add nuw nsw i64 %109, 1
  %113 = load i32, i32* %2, align 4, !tbaa !5
  %114 = sext i32 %113 to i64
  %115 = icmp slt i64 %112, %114
  br i1 %115, label %108, label %116, !llvm.loop !13

116:                                              ; preds = %108
  %117 = load i32, i32* %1, align 4, !tbaa !5
  br label %118

118:                                              ; preds = %116, %13
  %119 = phi i32 [ %117, %116 ], [ %14, %13 ]
  %120 = phi i32 [ %113, %116 ], [ %15, %13 ]
  %121 = add nuw nsw i64 %16, 1
  %122 = sext i32 %119 to i64
  %123 = icmp slt i64 %121, %122
  br i1 %123, label %13, label %18, !llvm.loop !14

124:                                              ; preds = %33
  br i1 %32, label %126, label %131

125:                                              ; preds = %96
  br i1 %93, label %126, label %131

126:                                              ; preds = %124, %125
  %127 = phi i32 [ %83, %124 ], [ 0, %125 ]
  %128 = phi i64 [ %31, %124 ], [ %92, %125 ]
  %129 = trunc i64 %128 to i32
  %130 = call i32 (i8*, ...) @printf(i8* nonnull dereferenceable(1) getelementptr inbounds ([7 x i8], [7 x i8]* @.str.2, i64 0, i64 0), i32 %129, i32 %127)
  br label %133

131:                                              ; preds = %104, %41, %0, %124, %18, %125
  %132 = call i32 @puts(i8* nonnull dereferenceable(1) getelementptr inbounds ([3 x i8], [3 x i8]* @str, i64 0, i64 0))
  br label %133

133:                                              ; preds = %131, %126
  call void @llvm.lifetime.end.p0i8(i64 324, i8* nonnull %6) #4
  call void @llvm.lifetime.end.p0i8(i64 4, i8* nonnull %5) #4
  call void @llvm.lifetime.end.p0i8(i64 4, i8* nonnull %4) #4
  ret void
}

; Function Attrs: argmemonly mustprogress nofree nosync nounwind willreturn
declare void @llvm.lifetime.start.p0i8(i64 immarg, i8* nocapture) #1

; Function Attrs: nofree nounwind
declare noundef i32 @__isoc99_scanf(i8* nocapture noundef readonly, ...) local_unnamed_addr #2

; Function Attrs: nofree nounwind
declare noundef i32 @printf(i8* nocapture noundef readonly, ...) local_unnamed_addr #2

; Function Attrs: argmemonly mustprogress nofree nosync nounwind willreturn
declare void @llvm.lifetime.end.p0i8(i64 immarg, i8* nocapture) #1

; Function Attrs: nofree nounwind
declare noundef i32 @puts(i8* nocapture noundef readonly) local_unnamed_addr #3


!llvm.module.flags = !{!0, !1, !2, !3}
!llvm.ident = !{!4}

!0 = !{i32 1, !"wchar_size", i32 4}
!1 = !{i32 7, !"PIC Level", i32 2}
!2 = !{i32 7, !"PIE Level", i32 2}
!3 = !{i32 7, !"uwtable", i32 1}
!4 = !{!"clang version 13.0.0"}
!5 = !{!6, !6, i64 0}
!6 = !{!"int", !7, i64 0}
!7 = !{!"omnipotent char", !8, i64 0}
!8 = !{!"Simple C/C++ TBAA"}
!9 = distinct !{!9, !10}
!10 = !{!"llvm.loop.mustprogress"}
!11 = distinct !{!11, !10}
!12 = distinct !{!12, !10}
!13 = distinct !{!13, !10}
!14 = distinct !{!14, !10, !15}
!15 = !{!"llvm.loop.unswitch.partial.disable"}
